; Function Attrs: mustprogress uwtable
define hidden noundef ptr @_ZN8datatype4util18get_constructor_isEP9func_decl(ptr noundef nonnull align 8 captures(none) dereferenceable(24) %0, ptr noundef %1) local_unnamed_addr #4 align 2 personality ptr @__gxx_personality_v0 {
  %3 = alloca %class.symbol, align 8
  %4 = alloca ptr, align 8
  %5 = alloca %class.parameter, align 8
  call void @llvm.lifetime.start.p0(i64 8, ptr nonnull %4) #28
  %6 = getelementptr inbounds nuw i8, ptr %1, i64 40
  %7 = load ptr, ptr %6, align 8, !tbaa !90
  store ptr %7, ptr %4, align 8, !tbaa !20
  call void @llvm.lifetime.start.p0(i64 16, ptr nonnull %5) #28
  store ptr %1, ptr %5, align 8, !tbaa !59
  %8 = getelementptr inbounds nuw i8, ptr %5, i64 8
  store i8 1, ptr %8, align 8, !tbaa !35
  %9 = load ptr, ptr %0, align 8, !tbaa !50
  %10 = getelementptr inbounds nuw i8, ptr %0, i64 8
  %11 = load i32, ptr %10, align 8, !tbaa !47
  %12 = icmp eq i32 %11, -1
  br i1 %12, label %13, label %_ZNK8datatype4util3fidEv.exit

13:                                               ; preds = %2
  call void @llvm.lifetime.start.p0(i64 8, ptr nonnull %3) #28
  invoke void @_ZN6symbolC1EPKc(ptr noundef nonnull align 8 dereferenceable(8) %3, ptr noundef nonnull @.str.34)
          to label %.noexc unwind label %19

.noexc:                                           ; preds = %13
  %14 = getelementptr inbounds nuw i8, ptr %9, i64 560
  %15 = invoke noundef i32 @_ZNK14family_manager13get_family_idERK6symbol(ptr noundef nonnull align 8 dereferenceable(56) %14, ptr noundef nonnull align 8 dereferenceable(8) %3)
          to label %.noexc4 unwind label %19

.noexc4:                                          ; preds = %.noexc
  call void @llvm.lifetime.end.p0(i64 8, ptr nonnull %3) #28
  store i32 %15, ptr %10, align 8, !tbaa !47
  br label %_ZNK8datatype4util3fidEv.exit

_ZNK8datatype4util3fidEv.exit:                    ; preds = %.noexc4, %2
  %16 = phi i32 [ %15, %.noexc4 ], [ %11, %2 ]
  %17 = invoke noundef ptr @_ZN11ast_manager12mk_func_declEiijPK9parameterjPKP4sortS4_(ptr noundef nonnull align 8 dereferenceable(976) %9, i32 noundef %16, i32 noundef 2, i32 noundef 1, ptr noundef nonnull %5, i32 noundef 1, ptr noundef nonnull %4, ptr noundef null)
          to label %18 unwind label %19

18:                                               ; preds = %_ZNK8datatype4util3fidEv.exit
  call void @_ZN9parameterD1Ev(ptr noundef nonnull align 8 dereferenceable(16) %5) #28
  call void @llvm.lifetime.end.p0(i64 16, ptr nonnull %5) #28
  call void @llvm.lifetime.end.p0(i64 8, ptr nonnull %4) #28
  ret ptr %17

19:                                               ; preds = %.noexc, %13, %_ZNK8datatype4util3fidEv.exit
  %20 = landingpad { ptr, i32 }
          cleanup
  call void @_ZN9parameterD1Ev(ptr noundef nonnull align 8 dereferenceable(16) %5) #28
  call void @llvm.lifetime.end.p0(i64 16, ptr nonnull %5) #28
  call void @llvm.lifetime.end.p0(i64 8, ptr nonnull %4) #28
  resume { ptr, i32 } %20
}